; Function Attrs: nounwind uwtable
define noundef i32 @ff_subtitles_read_close(ptr noundef readonly captures(none) %0) local_unnamed_addr #0 {
  %2 = getelementptr inbounds nuw i8, ptr %0, i64 24
  %3 = load ptr, ptr %2, align 8, !tbaa !55
  %4 = getelementptr inbounds nuw i8, ptr %3, i64 8
  %5 = load i32, ptr %4, align 8, !tbaa !23
  %6 = icmp sgt i32 %5, 0
  br i1 %6, label %.lr.ph.i, label %ff_subtitles_queue_clean.exit

.lr.ph.i:                                         ; preds = %1, %.lr.ph.i
  %indvars.iv.i = phi i64 [ %indvars.iv.next.i, %.lr.ph.i ], [ 0, %1 ]
  %7 = load ptr, ptr %3, align 8, !tbaa !27
  %8 = getelementptr inbounds nuw ptr, ptr %7, i64 %indvars.iv.i
  tail call void @av_packet_free(ptr noundef %8) #11
  %indvars.iv.next.i = add nuw nsw i64 %indvars.iv.i, 1
  %9 = load i32, ptr %4, align 8, !tbaa !23
  %10 = sext i32 %9 to i64
  %11 = icmp slt i64 %indvars.iv.next.i, %10
  br i1 %11, label %.lr.ph.i, label %ff_subtitles_queue_clean.exit, !llvm.loop !53

ff_subtitles_queue_clean.exit:                    ; preds = %.lr.ph.i, %1
  tail call void @av_freep(ptr noundef nonnull %3) #11
  %12 = getelementptr inbounds nuw i8, ptr %3, i64 16
  store i32 0, ptr %12, align 8, !tbaa !49
  %13 = getelementptr inbounds nuw i8, ptr %3, i64 12
  store i32 0, ptr %13, align 4, !tbaa !54
  store i32 0, ptr %4, align 8, !tbaa !23
  ret i32 0
}